target datalayout = "e-m:e-p270:32:32-p271:32:32-p272:64:64-i64:64-i128:128-f80:128-n8:16:32:64-S128"
target triple = "x86_64-pc-linux-gnu"

%struct.archive_read = type { %struct.archive, ptr, i32, i64, i64, %struct.archive_read_client, [16 x %struct.archive_read_filter_bidder], ptr, i32, i64, i32, i32, [16 x %struct.archive_format_descriptor], ptr, ptr, ptr, %struct.anon }
%struct.archive = type { i32, i32, ptr, i32, ptr, i32, i32, ptr, %struct.archive_string, ptr, i32, i32, ptr, ptr, i64, i64, i64, i8, i64 }
%struct.archive_string = type { ptr, i64, i64 }
%struct.archive_read_client = type { ptr, ptr, ptr, ptr, ptr, ptr, i32, i32, i64, ptr }
%struct.archive_read_filter_bidder = type { ptr, ptr, ptr }
%struct.archive_format_descriptor = type { ptr, ptr, ptr, ptr, ptr, ptr, ptr, ptr, ptr, ptr, ptr }
%struct.anon = type { ptr, ptr, i32, ptr, ptr }
%struct.tar = type { %struct.archive_string, %struct.archive_string, %struct.archive_string, %struct.archive_string, %struct.archive_string, %struct.archive_string, i32, i64, i64, i64, i64, i64, ptr, ptr, i64, i64, i32, i32, i8, i8, %struct.archive_string, ptr, ptr, ptr, ptr, i32, i32, i32, i32, i32 }
%struct.sparse_block = type { ptr, i64, i64, i32 }
%struct.gnu_sparse = type { [12 x i8], [12 x i8] }

@.str.130 = private unnamed_addr constant [14 x i8] c"Out of memory\00", align 1
@.str.131 = private unnamed_addr constant [26 x i8] c"Malformed sparse map data\00", align 1

; Function Attrs: nounwind uwtable
define internal i32 @gnu_add_sparse_entry(ptr noundef %0, ptr noundef %1, i64 noundef %2, i64 noundef %3) #0 {
  %5 = alloca i32, align 4
  %6 = alloca ptr, align 8
  %7 = alloca ptr, align 8
  %8 = alloca i64, align 8
  %9 = alloca i64, align 8
  %10 = alloca ptr, align 8
  %11 = alloca i32, align 4
  store ptr %0, ptr %6, align 8, !tbaa !11
  store ptr %1, ptr %7, align 8, !tbaa !13
  store i64 %2, ptr %8, align 8, !tbaa !46
  store i64 %3, ptr %9, align 8, !tbaa !46
  call void @llvm.lifetime.start.p0(i64 8, ptr %10) #10
  %12 = call noalias ptr @calloc(i64 noundef 1, i64 noundef 32) #11
  store ptr %12, ptr %10, align 8, !tbaa !54
  %13 = load ptr, ptr %10, align 8, !tbaa !54
  %14 = icmp eq ptr %13, null
  br i1 %14, label %15, label %18

15:                                               ; preds = %4
  %16 = load ptr, ptr %6, align 8, !tbaa !11
  %17 = getelementptr inbounds nuw %struct.archive_read, ptr %16, i32 0, i32 0
  call void (ptr, i32, ptr, ...) @archive_set_error(ptr noundef %17, i32 noundef 12, ptr noundef @.str.130)
  store i32 -30, ptr %5, align 4
  store i32 1, ptr %11, align 4
  br label %57

18:                                               ; preds = %4
  %19 = load ptr, ptr %7, align 8, !tbaa !13
  %20 = getelementptr inbounds nuw %struct.tar, ptr %19, i32 0, i32 13
  %21 = load ptr, ptr %20, align 8, !tbaa !72
  %22 = icmp ne ptr %21, null
  br i1 %22, label %23, label %29

23:                                               ; preds = %18
  %24 = load ptr, ptr %10, align 8, !tbaa !54
  %25 = load ptr, ptr %7, align 8, !tbaa !13
  %26 = getelementptr inbounds nuw %struct.tar, ptr %25, i32 0, i32 13
  %27 = load ptr, ptr %26, align 8, !tbaa !72
  %28 = getelementptr inbounds nuw %struct.sparse_block, ptr %27, i32 0, i32 0
  store ptr %24, ptr %28, align 8, !tbaa !59
  br label %33

29:                                               ; preds = %18
  %30 = load ptr, ptr %10, align 8, !tbaa !54
  %31 = load ptr, ptr %7, align 8, !tbaa !13
  %32 = getelementptr inbounds nuw %struct.tar, ptr %31, i32 0, i32 12
  store ptr %30, ptr %32, align 8, !tbaa !52
  br label %33

33:                                               ; preds = %29, %23
  %34 = load ptr, ptr %10, align 8, !tbaa !54
  %35 = load ptr, ptr %7, align 8, !tbaa !13
  %36 = getelementptr inbounds nuw %struct.tar, ptr %35, i32 0, i32 13
  store ptr %34, ptr %36, align 8, !tbaa !72
  %37 = load i64, ptr %9, align 8, !tbaa !46
  %38 = icmp slt i64 %37, 0
  br i1 %38, label %47, label %39

39:                                               ; preds = %33
  %40 = load i64, ptr %8, align 8, !tbaa !46
  %41 = icmp slt i64 %40, 0
  br i1 %41, label %47, label %42

42:                                               ; preds = %39
  %43 = load i64, ptr %8, align 8, !tbaa !46
  %44 = load i64, ptr %9, align 8, !tbaa !46
  %45 = sub nsw i64 9223372036854775807, %44
  %46 = icmp sgt i64 %43, %45
  br i1 %46, label %47, label %50

47:                                               ; preds = %42, %39, %33
  %48 = load ptr, ptr %6, align 8, !tbaa !11
  %49 = getelementptr inbounds nuw %struct.archive_read, ptr %48, i32 0, i32 0
  call void (ptr, i32, ptr, ...) @archive_set_error(ptr noundef %49, i32 noundef -1, ptr noundef @.str.131)
  store i32 -30, ptr %5, align 4
  store i32 1, ptr %11, align 4
  br label %57

50:                                               ; preds = %42
  %51 = load i64, ptr %8, align 8, !tbaa !46
  %52 = load ptr, ptr %10, align 8, !tbaa !54
  %53 = getelementptr inbounds nuw %struct.sparse_block, ptr %52, i32 0, i32 1
  store i64 %51, ptr %53, align 8, !tbaa !57
  %54 = load i64, ptr %9, align 8, !tbaa !46
  %55 = load ptr, ptr %10, align 8, !tbaa !54
  %56 = getelementptr inbounds nuw %struct.sparse_block, ptr %55, i32 0, i32 2
  store i64 %54, ptr %56, align 8, !tbaa !58
  store i32 0, ptr %5, align 4
  store i32 1, ptr %11, align 4
  br label %57

57:                                               ; preds = %50, %47, %15
  call void @llvm.lifetime.end.p0(i64 8, ptr %10) #10
  %58 = load i32, ptr %5, align 4
  ret i32 %58
}

; Function Attrs: nounwind uwtable
define internal i32 @gnu_sparse_old_parse(ptr noundef %0, ptr noundef %1, ptr noundef %2, i32 noundef %3) #0 {
  %5 = alloca i32, align 4
  %6 = alloca ptr, align 8
  %7 = alloca ptr, align 8
  %8 = alloca ptr, align 8
  %9 = alloca i32, align 4
  store ptr %0, ptr %6, align 8, !tbaa !11
  store ptr %1, ptr %7, align 8, !tbaa !13
  store ptr %2, ptr %8, align 8, !tbaa !133
  store i32 %3, ptr %9, align 4, !tbaa !9
  br label %10

10:                                               ; preds = %36, %4
  %11 = load i32, ptr %9, align 4, !tbaa !9
  %12 = icmp sgt i32 %11, 0
  br i1 %12, label %13, label %20

13:                                               ; preds = %10
  %14 = load ptr, ptr %8, align 8, !tbaa !133
  %15 = getelementptr inbounds nuw %struct.gnu_sparse, ptr %14, i32 0, i32 0
  %16 = getelementptr inbounds [12 x i8], ptr %15, i64 0, i64 0
  %17 = load i8, ptr %16, align 1, !tbaa !17
  %18 = sext i8 %17 to i32
  %19 = icmp ne i32 %18, 0
  br label %20

20:                                               ; preds = %13, %10
  %21 = phi i1 [ false, %10 ], [ %19, %13 ]
  br i1 %21, label %22, label %41

22:                                               ; preds = %20
  %23 = load ptr, ptr %6, align 8, !tbaa !11
  %24 = load ptr, ptr %7, align 8, !tbaa !13
  %25 = load ptr, ptr %8, align 8, !tbaa !133
  %26 = getelementptr inbounds nuw %struct.gnu_sparse, ptr %25, i32 0, i32 0
  %27 = getelementptr inbounds [12 x i8], ptr %26, i64 0, i64 0
  %28 = call i64 @tar_atol(ptr noundef %27, i64 noundef 12)
  %29 = load ptr, ptr %8, align 8, !tbaa !133
  %30 = getelementptr inbounds nuw %struct.gnu_sparse, ptr %29, i32 0, i32 1
  %31 = getelementptr inbounds [12 x i8], ptr %30, i64 0, i64 0
  %32 = call i64 @tar_atol(ptr noundef %31, i64 noundef 12)
  %33 = call i32 @gnu_add_sparse_entry(ptr noundef %23, ptr noundef %24, i64 noundef %28, i64 noundef %32)
  %34 = icmp ne i32 %33, 0
  br i1 %34, label %35, label %36

35:                                               ; preds = %22
  store i32 -30, ptr %5, align 4
  br label %42

36:                                               ; preds = %22
  %37 = load ptr, ptr %8, align 8, !tbaa !133
  %38 = getelementptr inbounds nuw %struct.gnu_sparse, ptr %37, i32 1
  store ptr %38, ptr %8, align 8, !tbaa !133
  %39 = load i32, ptr %9, align 4, !tbaa !9
  %40 = add nsw i32 %39, -1
  store i32 %40, ptr %9, align 4, !tbaa !9
  br label %10, !llvm.loop !135

41:                                               ; preds = %20
  store i32 0, ptr %5, align 4
  br label %42

42:                                               ; preds = %41, %35
  %43 = load i32, ptr %5, align 4
  ret i32 %43
}