; Function Attrs: nounwind uwtable
define internal fastcc range(i32 -30, 1) i32 @gnu_sparse_old_parse(ptr noundef %0, ptr noundef captures(none) %1, ptr noundef nonnull readonly captures(none) %2, i32 noundef range(i32 4, 22) %3) unnamed_addr #0 {
  %5 = getelementptr inbounds nuw i8, ptr %1, i64 200
  %6 = getelementptr inbounds nuw i8, ptr %1, i64 192
  br label %7

7:                                                ; preds = %4, %25
  %.014 = phi i32 [ %3, %4 ], [ %29, %25 ]
  %.0813 = phi ptr [ %2, %4 ], [ %28, %25 ]
  %8 = load i8, ptr %.0813, align 1, !tbaa !4
  %.not = icmp eq i8 %8, 0
  br i1 %.not, label %.critedge, label %9

9:                                                ; preds = %7
  %10 = tail call fastcc i64 @tar_atol(ptr noundef %.0813, i64 noundef 12)
  %11 = getelementptr inbounds nuw i8, ptr %.0813, i64 12
  %12 = tail call fastcc i64 @tar_atol(ptr noundef %11, i64 noundef 12)
  %13 = tail call noalias dereferenceable_or_null(32) ptr @calloc(i64 noundef 1, i64 noundef 32) #14
  %14 = icmp eq ptr %13, null
  br i1 %14, label %15, label %16

15:                                               ; preds = %9
  tail call void (ptr, i32, ptr, ...) @archive_set_error(ptr noundef %0, i32 noundef 12, ptr noundef nonnull @.str.130) #13
  br label %.critedge

16:                                               ; preds = %9
  %17 = load ptr, ptr %5, align 8, !tbaa !52
  %.not.i = icmp eq ptr %17, null
  br i1 %.not.i, label %19, label %18

18:                                               ; preds = %16
  store ptr %13, ptr %17, align 8, !tbaa !49
  br label %20

19:                                               ; preds = %16
  store ptr %13, ptr %6, align 8, !tbaa !48
  br label %20

20:                                               ; preds = %19, %18
  store ptr %13, ptr %5, align 8, !tbaa !52
  %21 = or i64 %12, %10
  %or.cond.not.i = icmp slt i64 %21, 0
  %22 = sub nuw nsw i64 9223372036854775807, %12
  %23 = icmp sgt i64 %10, %22
  %or.cond.i = select i1 %or.cond.not.i, i1 true, i1 %23
  br i1 %or.cond.i, label %24, label %25

24:                                               ; preds = %20
  tail call void (ptr, i32, ptr, ...) @archive_set_error(ptr noundef %0, i32 noundef -1, ptr noundef nonnull @.str.131) #13
  br label %.critedge

25:                                               ; preds = %20
  %26 = getelementptr inbounds nuw i8, ptr %13, i64 8
  store i64 %10, ptr %26, align 8, !tbaa !76
  %27 = getelementptr inbounds nuw i8, ptr %13, i64 16
  store i64 %12, ptr %27, align 8, !tbaa !82
  %28 = getelementptr inbounds nuw i8, ptr %.0813, i64 24
  %29 = add nsw i32 %.014, -1
  %30 = icmp sgt i32 %.014, 1
  br i1 %30, label %7, label %.critedge, !llvm.loop !109

.critedge:                                        ; preds = %7, %25, %24, %15
  %.09 = phi i32 [ -30, %15 ], [ -30, %24 ], [ 0, %25 ], [ 0, %7 ]
  ret i32 %.09
}